ccopy_reg
_reconstructor
p1
(cpandas.core.frame
DataFrame
p2
c__builtin__
object
p3
NtRp4
(dp5
S'_metadata'
p6
(lp7
sS'_typ'
p8
S'dataframe'
p9
sS'_data'
p10
g1
(cpandas.core.internals
BlockManager
p11
g3
NtRp12
((lp13
cpandas.indexes.base
_new_Index
p14
(cpandas.indexes.base
Index
p15
(dp16
S'data'
p17
cnumpy.core.multiarray
_reconstruct
p18
(cnumpy
ndarray
p19
(I0
tS'b'
tRp20
(I1
(L49L
tcnumpy
dtype
p21
(S'O8'
I0
I1
tRp22
(I3
S'|'
NNNI-1
I-1
I63
tbI00
(lp23
S'Asset Type'
p24
aS'delta'
p25
aS'z_c'
p26
aS'z_c_d'
p27
aS'z_c_e'
p28
aS'z_nc'
p29
aS'rho_c'
p30
aS'rho_c_d'
p31
aS'rho_c_e'
p32
aS'rho_nc'
p33
aS'metr_c'
p34
aS'metr_c_d'
p35
aS'metr_c_e'
p36
aS'mettr_c'
p37
aS'mettr_c_d'
p38
aS'mettr_c_e'
p39
aS'mettr_nc'
p40
aS'Economic deprecia- tion rate []'
p41
aS'Corporate: total [z(c)]'
p42
aS'Corporate: debt-financed [z(c,d)]'
p43
aS'Corporate: equity-financed [z(c,e)]'
p44
aS'Non-corporate [z(n)]'
p45
aS'Corporate: total [(c)]'
p46
aS'Corporate: debt-financed [(c,d)]'
p47
aS'Corporate: equity-financed [(c,e)]'
p48
aS'Non-corporate [(n)]'
p49
aS'Corporate: total [ETR(c)]'
p50
aS'Corporate: debt-financed [ETR(c,d)]'
p51
aS'Corporate: equity-financed [ETR(c,e)]'
p52
aS'Corporate: total [ETTR(c)]'
p53
aS'Corporate: debt-financed [ETTR(c,d)]'
p54
aS'Corporate: equity-financed [ETTR(c,e)]'
p55
aS'Non-corporate [ETTR(n)]'
p56
aS'delta_diff'
p57
aS'z_c_diff'
p58
aS'z_c_d_diff'
p59
aS'z_c_e_diff'
p60
aS'z_nc_diff'
p61
aS'rho_c_diff'
p62
aS'rho_c_d_diff'
p63
aS'rho_c_e_diff'
p64
aS'rho_nc_diff'
p65
aS'metr_c_diff'
p66
aS'metr_c_d_diff'
p67
aS'metr_c_e_diff'
p68
aS'mettr_c_diff'
p69
aS'mettr_c_d_diff'
p70
aS'mettr_c_e_diff'
p71
aS'mettr_nc_diff'
p72
atbsS'name'
p73
NstRp74
ag14
(cpandas.indexes.numeric
Int64Index
p75
(dp76
g17
g18
(g19
(I0
tS'b'
tRp77
(I1
(L22L
tg21
(S'i8'
I0
I1
tRp78
(I3
S'<'
NNNI-1
I-1
I0
tbI00
S'\x00\x00\x00\x00\x00\x00\x00\x00\x01\x00\x00\x00\x00\x00\x00\x00\x02\x00\x00\x00\x00\x00\x00\x00\x03\x00\x00\x00\x00\x00\x00\x00\x04\x00\x00\x00\x00\x00\x00\x00\x05\x00\x00\x00\x00\x00\x00\x00\x06\x00\x00\x00\x00\x00\x00\x00\x07\x00\x00\x00\x00\x00\x00\x00\x08\x00\x00\x00\x00\x00\x00\x00\t\x00\x00\x00\x00\x00\x00\x00\n\x00\x00\x00\x00\x00\x00\x00\x0b\x00\x00\x00\x00\x00\x00\x00\x0c\x00\x00\x00\x00\x00\x00\x00\r\x00\x00\x00\x00\x00\x00\x00\x0e\x00\x00\x00\x00\x00\x00\x00\x0f\x00\x00\x00\x00\x00\x00\x00\x10\x00\x00\x00\x00\x00\x00\x00\x11\x00\x00\x00\x00\x00\x00\x00\x12\x00\x00\x00\x00\x00\x00\x00\x13\x00\x00\x00\x00\x00\x00\x00\x14\x00\x00\x00\x00\x00\x00\x00\x15\x00\x00\x00\x00\x00\x00\x00'
tbsg73
NstRp79
a(lp80
g18
(g19
(I0
tS'b'
tRp81
(I1
(L49L
L22L
tg22
I00
(lp82
S'Nonmedical instruments'
p83
aS'Photocopy and related equipment'
p84
aS'Office and accounting equipment'
p85
aS'Steam engines'
p86
aS'Internal combustion engines'
p87
aS'Special industrial machinery'
p88
aS'General industrial equipment'
p89
aS'Electric transmission and distribution'
p90
aS'Light trucks (including utility vehicles)'
p91
aS'Other trucks, buses and truck trailers'
p92
aS'Autos'
p93
aS'Aircraft'
p94
aS'Ships and boats'
p95
aS'Railroad equipment'
p96
aS'Household furniture'
p97
aS'Other furniture'
p98
aS'Farm tractors'
p99
aS'Construction tractors'
p100
aS'Mining and oilfield machinery'
p101
aS'Service industry machinery'
p102
aS'Household appliances'
p103
aS'Petroleum and natural gas'
p104
aF0.13500000000000001
aF0.17999999999999999
aF0.31190000000000001
aF0.0516
aF0.20630000000000001
aF0.14999999999999999
aF0.14999999999999999
aF0.050000000000000003
aF0.1925
aF0.17249999999999999
aF0.33329999999999999
aF0.085900000000000004
aF0.061100000000000002
aF0.058900000000000001
aF0.13750000000000001
aF0.1179
aF0.1452
aF0.1633
aF0.14999999999999999
aF0.15279999999999999
aF0.16500000000000001
aF0.0751
aF0.82497105537243209
aF0.86972474130825872
aF0.82497105537243209
aF0.56343217604632956
aF0.64020460366840104
aF0.91846406843181616
aF0.86972474130825872
aF0.56343217604632956
aF0.86972474130825872
aF0.86972474130825872
aF0.86972474130825872
aF0.86972474130825872
aF0.76448358914943271
aF0.82497105537243209
aF0.86972474130825872
aF0.82497105537243209
aF0.82497105537243209
aF0.91846406843181616
aF0.82497105537243209
aF0.86972474130825872
aF0.86972474130825872
aF0.82497105537243209
aF0.87897270395420013
aF0.91111454870354924
aF0.87897270395420013
aF0.67265890855896171
aF0.73755141547985836
aF0.94513960667697205
aF0.91111454870354924
aF0.67265890855896171
aF0.91111454870354924
aF0.91111454870354924
aF0.91111454870354924
aF0.91111454870354924
aF0.83402481660514916
aF0.87897270395420013
aF0.91111454870354924
aF0.87897270395420013
aF0.87897270395420013
aF0.94513960667697205
aF0.87897270395420013
aF0.91111454870354924
aF0.91111454870354924
aF0.87897270395420013
aF0.79051803717061442
aF0.84269113759994685
aF0.79051803717061442
aF0.50347515885943395
aF0.58390922606553741
aF0.90061367404445059
aF0.84269113759994685
aF0.50347515885943395
aF0.84269113759994685
aF0.84269113759994685
aF0.84269113759994685
aF0.84269113759994685
aF0.72158776261396618
aF0.79051803717061442
aF0.84269113759994685
aF0.79051803717061442
aF0.79051803717061442
aF0.90061367404445059
aF0.79051803717061442
aF0.84269113759994685
aF0.84269113759994685
aF0.79051803717061442
aF0.82113622806033604
aF0.86674071878176595
aF0.82113622806033604
aF0.5564051572808123
aF0.6337207856005288
aF0.91651076644890039
aF0.86674071878176595
aF0.5564051572808123
aF0.86674071878176595
aF0.86674071878176595
aF0.86674071878176595
aF0.86674071878176595
aF0.75965221692015727
aF0.82113622806033604
aF0.86674071878176595
aF0.82113622806033604
aF0.82113622806033604
aF0.91651076644890039
aF0.82113622806033604
aF0.86674071878176595
aF0.86674071878176595
aF0.82113622806033604
aF0.08253649330861676
aF0.081160110386292394
aF0.099208673472641118
aF0.089422231228752813
aF0.1150646637847009
aF0.073725246147896495
aF0.07905566389973348
aF0.089046111257346586
aF0.08203696308902525
aF0.080633998764652715
aF0.091913831932608325
aF0.074559163240119325
aF0.07929146213484238
aF0.075364345708377883
aF0.078178811197000625
aF0.080924880641545988
aF0.083497806127571239
aF0.074309168857819463
aF0.08395018863060863
aF0.079252078905145684
aF0.080107887143012951
aF0.076891136656129122
aF0.051174607511239534
aF0.050493459662684009
aF0.062702922949202156
aF0.054671351251001261
aF0.073723971964984397
aF0.045781789867930883
aF0.049057617757125971
aF0.054389334310682838
aF0.051091727123333208
aF0.050134499186294479
aF0.057830611800085696
aF0.045989702218916934
aF0.048534475608490737
aF0.046215281310962801
aF0.048459350296476772
aF0.050060225408417813
aF0.051839326660291063
aF0.046174674684728884
aF0.052152135671609451
aF0.049191629668311393
aF0.049775538709904976
aF0.047271011724162329
aF0.10482358589693602
aF0.10287619301539175
aF0.12477754855629203
aF0.11421091882914228
aF0.14360470506666492
aF0.093473457074734312
aF0.10033504985354472
aF0.1137831435813904
aF0.10393500266616135
aF0.10224090722493001
aF0.11586143457243003
aF0.094905473964398301
aF0.10135376232685868
aF0.096239659620073442
aF0.099276240202775146
aF0.10289474043919161
aF0.10597412529278355
aF0.094185216070615974
aF0.10651555559671186
aF0.10057222321531711
aF0.10160562143446825
aF0.098066986895831293
aF0.079005709238059302
aF0.078034947347545736
aF0.090531148986198184
aF0.083844818051430736
aF0.10148461695875308
aF0.072863519166370683
aF0.076578730645556536
aF0.083586286377747746
aF0.07864170430670786
aF0.077670893172048394
aF0.08547621469471034
aF0.073467280958973008
aF0.076789585247024048
aF0.07404762012085539
aF0.075971973686394384
aF0.077891605113168561
aF0.079670262575713413
aF0.073267992041218311
aF0.079982993558138898
aF0.076714644204408877
aF0.077306838996551108
aF0.075103087186541406
aF0.23137030110077486
aF0.21833521790385882
aF0.36053978166037137
aF0.29055673149428729
aF0.44865784235285749
aF0.13950778987246473
aF0.19752745254962201
aF0.28756012919355856
aF0.22669004786103675
aF0.21323509968589063
aF0.30978832384537586
aF0.14913208191875518
aF0.19991385841625053
aF0.15822263958237087
aF0.18852692911715799
aF0.21606310077854379
aF0.24021955854655777
aF0.14626955226233437
aF0.24431378851161401
aF0.19951626662148073
aF0.20806799102386164
aF0.1749374146500785
aF-0.055210828693506145
aF-0.069445436314743314
aF0.13879612847159783
aF0.012279763269779686
aF0.26753810788100801
aF-0.17950827514119935
aF-0.10074647870882611
aF0.007158284167607009
aF-0.056922579063462465
aF-0.077102611503941085
aF0.066238479601905709
aF-0.17417590013853546
aF-0.11261117634395751
aF-0.16844468903385351
aF-0.11433602946851833
aF-0.078700696200215095
aF-0.041680196848775927
aF-0.16947223491450258
aF-0.035432189009979145
aF-0.097747733996828512
aF-0.084870227416632235
aF-0.14234914867282555
aF0.33221135872202501
aF0.31957046671111744
aF0.43900164084069765
aF0.38709888058322256
aF0.51255079025785233
aF0.25112430640033678
aF0.302337517127102
aF0.38479463832067357
aF0.32650215803775345
aF0.31534253852032046
aF0.3958300252510687
aF0.26242399857505622
aF0.30934976272262116
aF0.27264913159148818
aF0.29489674611948852
aF0.3196931184119331
aF0.33946140336987757
aF0.25678357049670031
aF0.34281899382815678
aF0.30398277216030528
aF0.31106174036692114
aF0.28620219488995413
aF0.31653128485475979
aF0.30494043483014271
aF0.43138932252944029
aF0.36916010415880129
aF0.50974426745133827
aF0.23484675899120733
aF0.28643808360422623
aF0.36649551296851363
aF0.31236958426876987
aF0.30040538856467103
aF0.38626091581520705
aF0.24340471938290317
aF0.28856008559532226
aF0.25148808094856101
aF0.27843478085020745
aF0.30292005886168538
aF0.32440008126624437
aF0.24085934614382462
aF0.32804068752662391
aF0.28820654532292217
aF0.29581077411858547
aF0.26635092824138418
aF0.12277261087810307
aF0.11093896840666148
aF0.2840562253726055
aF0.17887949887464477
aF0.39108316955923017
aF0.019440535944005365
aF0.084917503359575153
aF0.1746218646473654
aF0.12134958311243428
aF0.10457333642429679
aF0.22373694589971552
aF0.023873494054563543
aF0.07505403584562477
aF0.028638016192846928
aF0.073620115379749121
aF0.10324480223227772
aF0.13402101785381451
aF0.027783787478002541
aF0.13921516811706283
aF0.087410446876470038
aF0.098115891862977839
aF0.050331996311467106
aF0.38548106194363385
aF0.37384853773692966
aF0.48375265074562035
aF0.43599018947557161
aF0.5514347621218828
aF0.31086234847243127
aF0.35799026578776683
aF0.43386975731982796
aF0.38022728593610089
aF0.36995787266509655
aF0.44402484807508485
aF0.32126066076220555
aF0.36444314241726783
aF0.33067013180489624
aF0.35114304734875795
aF0.37396140547423018
aF0.39215276832266616
aF0.31607017134887672
aF0.39524252276787697
aF0.35950427832607701
aF0.36601855508367398
aF0.34314206311784162
aF0.27621838238196961
aF0.26721447278351013
aF0.3683623739040352
aF0.31799148280927592
aF0.43653647471888801
aF0.21520562432874599
aF0.25327986568421457
aF0.3158820362594133
aF0.27286825053580593
aF0.26377980607591539
aF0.33100827829568041
aF0.22165514652277007
aF0.25533026582405677
aF0.22775532906996337
aF0.24731611858040936
aF0.26586594344407932
aF0.2822556599579491
aF0.2195380487401237
aF0.28506201769234074
aF0.25460281245629546
aF0.26031279023149001
aF0.23860812949870863
aF0.13500000000000001
aF0.17999999999999999
aF0.31190000000000001
aF0.0516
aF0.20630000000000001
aF0.1031
aF0.1072
aF0.050000000000000003
aF0.17249999999999999
aF0.17249999999999999
aF0.33329999999999999
aF0.085915757860782913
aF0.061100000000000002
aF0.058900000000000001
aF0.13750000000000001
aF0.1179
aF0.1452
aF0.1633
aF0.14999999999999999
aF0.15283486501146029
aF0.16500000000000001
aF0.0751
aF0.8284023506077749
aF0.86969170790437378
aF0.86961778291513703
aF0.64456562792720684
aF0.82457918851276168
aF0.84368491031621295
aF0.82494146676464797
aF0.6038056787898316
aF0.86964485670448222
aF0.86961157400801037
aF0.86963356905644196
aF0.82820640591907835
aF0.76491419788851978
aF0.82497105537243209
aF0.86972474130825883
aF0.82496355981343994
aF0.81396983998177719
aF0.86970163446055304
aF0.82497105537243198
aF0.82541454403580183
aF0.8697026887100151
aF0.86972474130825861
aF0.88143780737662103
aF0.91109091429019384
aF0.91103778660515988
aF0.7408893681442098
aF0.87869546425521017
aF0.89222226717324005
aF0.87895177047510364
aF0.70678493384372609
aF0.91105915109955959
aF0.9110360705364513
aF0.91105132345034334
aF0.88129631446371537
aF0.83434479947605722
aF0.87897270395420013
aF0.91111454870354935
aF0.87896740096297354
aF0.87118951543452106
aF0.91109852478982667
aF0.87897270395420024
aF0.87929130666208666
aF0.91109871065190617
aF0.91111454870354913
aF0.79451732199283531
aF0.84265252555789505
aF0.84256638500563863
aF0.58878579336984171
aF0.79005648626942937
aF0.81254080041409027
aF0.79048318694470077
aF0.54577426458789513
aF0.84259576531959823
aF0.84255602991992695
aF0.84258228927186796
aF0.7942897548618969
aF0.72207847549161153
aF0.79051803717061453
aF0.84269113759994674
aF0.79050920870777741
aF0.77756052174825152
aF0.84266355089796419
aF0.79051803717061431
aF0.79103494580008604
aF0.84266542904882202
aF0.84269113759994663
aF0.82901452810909504
aF0.86654860851396731
aF0.86621189633965723
aF0.64226967283395675
aF0.81233432140627637
aF0.84392437624876238
aF0.81986433433163752
aF0.63153485874327708
aF0.86451551386553138
aF0.86451343425259131
aF0.86393484927892861
aF0.82608492863562744
aF0.76189349971192466
aF0.8211365497825972
aF0.86674096938357303
aF0.82092767580486636
aF0.79955270767104669
aF0.86626035509529487
aF0.8211365497825972
aF0.82162459387088105
aF0.86671574790700634
aF0.86674096938357315
aF0.07048894110946996
aF0.069464256728983903
aF0.078733682004306249
aF0.073147827355152795
aF0.077610994851074672
aF0.066255974823482722
aF0.06821899872471153
aF0.075104586807643578
aF0.068943703244638971
aF0.068947746467569654
aF0.080232801764328399
aF0.065968287475290613
aF0.067564981154833489
aF0.063664345708377895
aF0.066478811197000637
aF0.069225570841843304
aF0.072972529446942769
aF0.068291327755971132
aF0.072250188630608697
aF0.072468184841091826
aF0.068410477061219416
aF0.06210156250495813
aF0.039257185389382027
aF0.038796116897957894
aF0.045120460209642554
aF0.040017497200649128
aF0.044156221113476973
aF0.036454706209149784
aF0.037664454962130875
aF0.041241340807061599
aF0.038440503860431574
aF0.038443005615929698
aF0.046142939265416516
aF0.036132329440780056
aF0.036818985976132076
aF0.034515281310962799
aF0.036759350296476784
aF0.03836064430393249
aF0.04086855155390412
aF0.037995831824240017
aF0.040452135671609435
aF0.040605719272383933
aF0.038077191471509536
aF0.033772799132916059
aF0.092682126380021629
aF0.091181390790283368
aF0.10237440638187895
aF0.096925040975660848
aF0.10123474999279206
aF0.087472639395249768
aF0.089991127301061027
aF0.09934997059585908
aF0.090553360643844782
aF0.090558549170071057
aF0.10418507224281465
aF0.087270329337926431
aF0.089619121772411395
aF0.084539659620073454
aF0.087576240202775157
aF0.091195633675896948
aF0.095775602310648772
aF0.089765088848348829
aF0.09481555559671187
aF0.095073299808711681
aF0.089908874554975954
aF0.082290662426133421
aF0.066760496269815783
aF0.066351226226524729
aF0.072807947364524173
aF0.068812697788195237
aF0.072788450324073967
aF0.063915414114094488
aF0.065569426704410363
aF0.069014513117418949
aF0.066155075392686474
aF0.066155247674585277
aF0.074172847686772903
aF0.063853704998030322
aF0.064994690270286967
aF0.062347443239604998
aF0.064271795129725889
aF0.066204570947292429
aF0.069543517167536151
aF0.065562344173714815
aF0.068282806000932478
aF0.068430568385426133
aF0.065608678455582103
aF0.061242870085668366
aF0.10000066675030457
aF0.086724554651000485
aF0.19424573594144584
aF0.13271518384296796
aF0.18259004253542868
aF0.042501447318297726
aF0.070053779944741157
aF0.15531124400589119
aF0.079828947178971363
aF0.079882907705479164
aF0.20930095166880347
aF0.038325801260758963
aF0.061052058097678975
aF0.0035238830444520252
aF0.045710973801795819
aF0.083575632118098944
aF0.13063175306090655
aF0.071038708945689519
aF0.12194000870575253
aF0.12458135747278357
aF0.072656664223689119
aF-0.021552396446305529
aF-0.3755443612268109
aF-0.39189187778848
aF-0.19679630369682752
aF-0.34940972768092182
aF-0.22293073633329069
aF-0.48129022601878785
aF-0.4337125030560891
aF-0.30936577092939171
aF-0.4047682672438761
aF-0.40467684913855728
aF-0.17027655497603364
aF-0.49450646652894553
aF-0.46663463341998379
aF-0.5645244062620004
aF-0.46901399411228567
aF-0.40769272726903222
aF-0.32130936739404559
aF-0.42120852228717026
aF-0.33491097820822524
aF-0.3298619250595457
aF-0.41817182184784729
aF-0.59891988186936662
aF0.24473031927449321
aF0.23229949232733715
aF0.3162353514521522
aF0.27779241261731397
aF0.30853782910528227
aF0.19974976765361693
aF0.22214553701701789
aF0.29542002297363923
aF0.22697512823055957
aF0.22701941846994056
aF0.32811871707630635
aF0.19789462774974298
aF0.2189166930494402
aF0.1719862569285894
aF0.20069644645715434
aF0.23241939138473203
aF0.26912493044988051
aF0.22018681318012628
aF0.26172451809766589
aF0.26372598678240239
aF0.22143392021665675
aF0.14935670784234947
aF0.19971875120448601
aF0.18791360515885822
aF0.28352165958306474
aF0.22880856674704403
aF0.27315739315537269
aF0.148590327624813
aF0.173089918176623
aF0.24890102968226463
aF0.18178201688423876
aF0.18182999869482899
aF0.29690878821534
aF0.1448773346058192
aF0.1650855686899794
aF0.11393139771266553
aF0.15144424514159799
aF0.1851135767989576
aF0.22695597583230773
aF0.17396571905972785
aF0.21922725896577624
aF0.22157595169441588
aF0.17540440820374922
aF0.09163351867585838
aF-0.14352995231707169
aF-0.15712011731734507
aF0.0050684960250296576
aF-0.12180347289920665
aF-0.016657816370998335
aF-0.23143955896577945
aF-0.19188681693544174
aF-0.088513769385883401
aF-0.16782463360558222
aF-0.16774863508124319
aF0.027115132865664228
aF-0.24242660329993132
aF-0.21925593946350341
aF-0.30063454885311558
aF-0.22123397106735979
aF-0.17025582210621143
aF-0.098442827786834539
aF-0.18149189479734165
aF-0.109750241639996
aF-0.10555281721000058
aF-0.17896739758266575
aF-0.32922850604555037
aF0.30498084783670887
aF0.29354167183642005
aF0.37078167118206867
aF0.33540546128312393
aF0.36369820736535563
aF0.26358855360169048
aF0.284197733385054
aF0.35162685493518914
aF0.28864205105885049
aF0.28868280810948982
aF0.3817170587816508
aF0.26188140475666305
aF0.28122646569871218
aF0.23803983613344876
aF0.26445971249525746
aF0.29365200612275832
aF0.32742941476472881
aF0.28239526386300101
aF0.32061935942958791
aF0.32246116389208224
aF0.28354288476889206
aF0.21721552606098846
aF0.14346462818095954
aF0.13818131559366995
aF0.21460872658590111
aF0.16900908795498532
aF0.21439835247628869
aF0.10533746377338239
aF0.12790565101213439
aF0.1714391087856901
aF0.1356260097073074
aF0.13562826071531595
aF0.22906119586011783
aF0.10447284935064886
aF0.12019387649221502
aF0.082837667047008692
aF0.11029828278682774
aF0.13627222898528685
aF0.17774181082138318
aF0.12781144091220636
aF0.16256038900174324
aF0.1643686755133148
aF0.12842739952453475
aF0.066295775895195461
aF0
aF0
aF0
aF0
aF0
aF0.046899999999999997
aF0.042799999999999991
aF0
aF0.020000000000000018
aF0
aF0
aF-1.5757860782908417e-05
aF0
aF0
aF0
aF0
aF0
aF0
aF0
aF-3.4865011460299966e-05
aF0
aF0
aF-0.0034312952353428017
aF3.3033403884941137e-05
aF-0.044646727542704934
aF-0.081133451880877283
aF-0.18437458484436064
aF0.074779158115603206
aF0.044783274543610752
aF-0.040373502743502043
aF7.9884603776503305e-05
aF0.00011316730024835131
aF9.1172251816762362e-05
aF0.041518335389180372
aF-0.00043060873908706832
aF0
aF-1.1102230246251565e-16
aF7.4955589921543719e-06
aF0.011001215390654906
aF0.048762433971263119
aF1.1102230246251565e-16
aF0.044310197272456886
aF2.205259824361594e-05
aF-0.044753685935826515
aF-0.0024651034224209001
aF2.3634413355400063e-05
aF-0.032065082650959753
aF-0.068230459585248093
aF-0.1411440487753518
aF0.052917339503732008
aF0.032162778228445599
aF-0.034126025284764383
aF5.5397603989648658e-05
aF7.8478167097939533e-05
aF6.3225253205900778e-05
aF0.029818234239833874
aF-0.00031998287090806432
aF0
aF-1.1102230246251565e-16
aF5.3029912265856183e-06
aF0.007783188519679074
aF0.034041081887145386
aF-1.1102230246251565e-16
aF0.031823242041462585
aF1.5838051643068951e-05
aF-0.032141844749349002
aF-0.0039992848222208943
aF3.8612042051799911e-05
aF-0.052048347835024211
aF-0.085310634510407768
aF-0.20614726020389196
aF0.088072873630360315
aF0.052207950655246083
aF-0.042299105728461184
aF9.5372280348615668e-05
aF0.00013510768001989693
aF0.00010884832807889211
aF0.048401382738049947
aF-0.00049071287764534954
aF-1.1102230246251565e-16
aF1.1102230246251565e-16
aF8.8284628370072227e-06
aF0.012957515422362897
aF0.057950123146486399
aF1.1102230246251565e-16
aF0.051656191799860807
aF2.5708551124825618e-05
aF-0.052173100429332209
aF-0.0078783000487590016
aF0.00019211026779863971
aF-0.04507566827932119
aF-0.085864515553144449
aF-0.17861353580574757
aF0.072586390200138018
aF0.046876384450128428
aF-0.075129701462464782
aF0.0022252049162345688
aF0.0022272845291746446
aF0.0028058695028373437
aF0.040655790146138515
aF-0.002241282791767385
aF-3.2172226116511382e-07
aF-2.5060180708358359e-07
aF0.00020855225546967393
aF0.021583520389289346
aF0.050250411353605529
aF-3.2172226116511382e-07
aF0.045116124910884903
aF2.4970874759611128e-05
aF-0.045604741323237108
aF0.012047552199146799
aF0.011695853657308491
aF0.020474991468334869
aF0.016274403873600018
aF0.037453668933626227
aF0.0074692713244137732
aF0.010836665175021951
aF0.013941524449703008
aF0.013093259844386279
aF0.011686252297083061
aF0.011681030168279927
aF0.0085908757648287121
aF0.011726480980008891
aF0.011699999999999988
aF0.011699999999999988
aF0.011699309799702684
aF0.01052527668062847
aF0.0060178411018483313
aF0.011699999999999933
aF0.0067838940640538581
aF0.011697410081793536
aF0.014789574151170992
aF0.011917422121857507
aF0.011697342764726115
aF0.017582462739559601
aF0.014653854050352133
aF0.029567750851507424
aF0.009327083658781099
aF0.011393162794995096
aF0.013147993503621239
aF0.012651223262901634
aF0.01169149357036478
aF0.01168767253466918
aF0.0098573727781368775
aF0.011715489632358661
aF0.011700000000000002
aF0.011699999999999988
aF0.011699581104485324
aF0.010970775106386943
aF0.0081788428604888663
aF0.011700000000000016
aF0.0085859103959274596
aF0.01169834723839544
aF0.01349821259124627
aF0.012141459516914394
aF0.011694802225108381
aF0.022403142174413082
aF0.017285877853481429
aF0.042369955073872867
aF0.0060008176794845436
aF0.010343922552483689
aF0.014433172985531317
aF0.013381642022316564
aF0.011682358054858955
aF0.011676362329615386
aF0.0076351446264718709
aF0.011734640554447284
aF0.011699999999999988
aF0.011699999999999988
aF0.011699106763294664
aF0.010198522982134778
aF0.0044201272222671451
aF0.011699999999999988
aF0.0054989234066054327
aF0.011696746879492292
aF0.015776324469697872
aF0.012245212968243518
aF0.011683721121021007
aF0.017723201621674012
aF0.015032120263235499
aF0.02869616663467911
aF0.0089481050522761951
aF0.011009303941146173
aF0.014571773260328796
aF0.012486628914021386
aF0.011515645497463117
aF0.011303367007937437
aF0.0096135759609426857
aF0.01179489497673708
aF0.011700176881250392
aF0.011700178556668495
aF0.011687034165876131
aF0.010126745408177262
aF0.0077056478675034956
aF0.011700187557206421
aF0.0082840758189827446
aF0.011698160540969005
aF0.01386021710087304
aF0.13136963435047028
aF0.13161066325285833
aF0.16629404571892553
aF0.15784154765131933
aF0.26606779981742879
aF0.097006342554167013
aF0.12747367260488085
aF0.13224888518766736
aF0.14686110068206537
aF0.13335219198041148
aF0.10048737217657239
aF0.11080628065799622
aF0.13886180031857157
aF0.15469875653791884
aF0.14281595531536218
aF0.13248746866044486
aF0.10958780548565122
aF0.075230843316644855
aF0.12237377980586148
aF0.07493490914869716
aF0.13541132680017254
aF0.19648981109638403
aF0.32033353253330477
aF0.32244644147373669
aF0.33559243216842538
aF0.36168949095070152
aF0.4904688442142987
aF0.30178195087758852
aF0.33296602434726297
aF0.31652405509699871
aF0.34784568818041361
aF0.32757423763461618
aF0.23651503457793935
aF0.32033056639041008
aF0.35402345707602628
aF0.39607971722814689
aF0.35467796464376733
aF0.32899203106881714
aF0.27962917054526965
aF0.25173628737266768
aF0.29947878919824611
aF0.23211419106271719
aF0.33330159443121504
aF0.45657073319654107
aF0.0874810394475318
aF0.087270974383780286
aF0.12276628938854545
aF0.10930646796590859
aF0.20401296115257006
aF0.05137453874671985
aF0.080191980110084105
aF0.089374615347034336
aF0.099527029807193884
aF0.0883231200503799
aF0.067711308174762341
aF0.064529370825313237
aF0.09043306967318096
aF0.10066287466289878
aF0.094200299662334175
aF0.08727372702720107
aF0.070336472919997062
aF0.036596757316574025
aF0.081094475730490889
aF0.040256785377902893
aF0.089627820150264381
aF0.13684548704760466
aF0.11681253365027378
aF0.1170268296712845
aF0.14786766294637554
aF0.14035153741175727
aF0.23658687429596559
aF0.086256431366394326
aF0.11334816542760323
aF0.117594483286249
aF0.13058756738453112
aF0.11857538986984203
aF0.089352127599867048
aF0.098527384777083976
aF0.12347451690534286
aF0.13755668323589548
aF0.12699053570860946
aF0.11780648206272779
aF0.09744410543393664
aF0.066893627084096768
aF0.10881342856084766
aF0.066630593628506291
aF0.12040636591483625
aF0.17471740956552578
aF0.26630256319517476
aF0.26805908572400655
aF0.27898772934757582
aF0.30068297177385139
aF0.40774098593022851
aF0.2508800949097848
aF0.27680432029501689
aF0.2631356340332488
aF0.28917421671801652
aF0.27232197150553999
aF0.1966218130340513
aF0.26630009735449489
aF0.29430997530912817
aF0.32927256504596253
aF0.29485408644710892
aF0.27350062433848915
aF0.23246384564064904
aF0.20927568227534418
aF0.24896540975705883
aF0.19296326408647063
aF0.27708328944564359
aF0.37956050235701749
aF0.080500214106924983
aF0.080306865900509616
aF0.11297097956355168
aF0.10058472819244768
aF0.18773655475652717
aF0.047273794870740793
aF0.073792532402712829
aF0.082242902384638827
aF0.091585234877250399
aF0.081275064555606735
aF0.062307789293434057
aF0.059379256005542502
aF0.083216676718555649
aF0.092630295671447482
aF0.086683334853500493
aF0.080309399351471855
aF0.064723353557937346
aF0.033674907485875705
aF0.074623163338289056
aF0.037043114433994773
aF0.082475670314781924
aF0.12592653705685317
aF0.13275375420101007
aF0.12903315718984018
aF0.1537536473181341
aF0.1489823948542906
aF0.22213812224259932
aF0.10986816055536359
aF0.12537421467208018
aF0.1444429274737232
aF0.13724224082849854
aF0.12815154536059944
aF0.10194708243556258
aF0.11718229717212121
aF0.13513638933184174
aF0.1449176620229547
aF0.13701783579358162
aF0.12959371445879247
aF0.10451384913656592
aF0.091726607827917334
aF0.1225016286905975
aF0.090234136942980658
aF0.13188539070695526
aF0.17231235360351316
atba(lp105
g14
(g15
(dp106
g17
g18
(g19
(I0
tS'b'
tRp107
(I1
(L49L
tg22
I00
(lp108
g24
ag25
ag26
ag27
ag28
ag29
ag30
ag31
ag32
ag33
ag34
ag35
ag36
ag37
ag38
ag39
ag40
ag41
ag42
ag43
ag44
ag45
ag46
ag47
ag48
ag49
ag50
ag51
ag52
ag53
ag54
ag55
ag56
ag57
ag58
ag59
ag60
ag61
ag62
ag63
ag64
ag65
ag66
ag67
ag68
ag69
ag70
ag71
ag72
atbsg73
NstRp109
a(dp110
S'0.14.1'
p111
(dp112
S'axes'
p113
g13
sS'blocks'
p114
(lp115
(dp116
S'mgr_locs'
p117
c__builtin__
slice
p118
(I0
I49
I1
tRp119
sS'values'
p120
g81
sasstbsb.